target datalayout = "e-m:e-p270:32:32-p271:32:32-p272:64:64-i64:64-i128:128-f80:128-n8:16:32:64-S128"
target triple = "x86_64-pc-linux-gnu"

%struct.PROJ_UNIT_INFO = type { ptr, ptr, ptr, ptr, double, ptr, i32 }

; Function Attrs: mustprogress nounwind uwtable
define void @proj_unit_list_destroy(ptr noundef %0) #0 {
  %2 = alloca ptr, align 8
  %3 = alloca i32, align 4
  store ptr %0, ptr %2, align 8
  %4 = load ptr, ptr %2, align 8
  %5 = icmp ne ptr %4, null
  br i1 %5, label %6, label %66

6:                                                ; preds = %1
  store i32 0, ptr %3, align 4
  br label %7

7:                                                ; preds = %58, %6
  %8 = load ptr, ptr %2, align 8
  %9 = load i32, ptr %3, align 4
  %10 = sext i32 %9 to i64
  %11 = getelementptr inbounds ptr, ptr %8, i64 %10
  %12 = load ptr, ptr %11, align 8
  %13 = icmp ne ptr %12, null
  br i1 %13, label %14, label %61

14:                                               ; preds = %7
  %15 = load ptr, ptr %2, align 8
  %16 = load i32, ptr %3, align 4
  %17 = sext i32 %16 to i64
  %18 = getelementptr inbounds ptr, ptr %15, i64 %17
  %19 = load ptr, ptr %18, align 8
  %20 = getelementptr inbounds %struct.PROJ_UNIT_INFO, ptr %19, i32 0, i32 0
  %21 = load ptr, ptr %20, align 8
  call void @free(ptr noundef %21) #19
  %22 = load ptr, ptr %2, align 8
  %23 = load i32, ptr %3, align 4
  %24 = sext i32 %23 to i64
  %25 = getelementptr inbounds ptr, ptr %22, i64 %24
  %26 = load ptr, ptr %25, align 8
  %27 = getelementptr inbounds %struct.PROJ_UNIT_INFO, ptr %26, i32 0, i32 1
  %28 = load ptr, ptr %27, align 8
  call void @free(ptr noundef %28) #19
  %29 = load ptr, ptr %2, align 8
  %30 = load i32, ptr %3, align 4
  %31 = sext i32 %30 to i64
  %32 = getelementptr inbounds ptr, ptr %29, i64 %31
  %33 = load ptr, ptr %32, align 8
  %34 = getelementptr inbounds %struct.PROJ_UNIT_INFO, ptr %33, i32 0, i32 2
  %35 = load ptr, ptr %34, align 8
  call void @free(ptr noundef %35) #19
  %36 = load ptr, ptr %2, align 8
  %37 = load i32, ptr %3, align 4
  %38 = sext i32 %37 to i64
  %39 = getelementptr inbounds ptr, ptr %36, i64 %38
  %40 = load ptr, ptr %39, align 8
  %41 = getelementptr inbounds %struct.PROJ_UNIT_INFO, ptr %40, i32 0, i32 3
  %42 = load ptr, ptr %41, align 8
  call void @free(ptr noundef %42) #19
  %43 = load ptr, ptr %2, align 8
  %44 = load i32, ptr %3, align 4
  %45 = sext i32 %44 to i64
  %46 = getelementptr inbounds ptr, ptr %43, i64 %45
  %47 = load ptr, ptr %46, align 8
  %48 = getelementptr inbounds %struct.PROJ_UNIT_INFO, ptr %47, i32 0, i32 5
  %49 = load ptr, ptr %48, align 8
  call void @free(ptr noundef %49) #19
  %50 = load ptr, ptr %2, align 8
  %51 = load i32, ptr %3, align 4
  %52 = sext i32 %51 to i64
  %53 = getelementptr inbounds ptr, ptr %50, i64 %52
  %54 = load ptr, ptr %53, align 8
  %55 = icmp eq ptr %54, null
  br i1 %55, label %57, label %56

56:                                               ; preds = %14
  call void @_ZdlPv(ptr noundef %54) #20
  br label %57

57:                                               ; preds = %56, %14
  br label %58

58:                                               ; preds = %57
  %59 = load i32, ptr %3, align 4
  %60 = add nsw i32 %59, 1
  store i32 %60, ptr %3, align 4
  br label %7, !llvm.loop !20

61:                                               ; preds = %7
  %62 = load ptr, ptr %2, align 8
  %63 = icmp eq ptr %62, null
  br i1 %63, label %65, label %64

64:                                               ; preds = %61
  call void @_ZdaPv(ptr noundef %62) #20
  br label %65

65:                                               ; preds = %64, %61
  br label %66

66:                                               ; preds = %65, %1
  ret void
}