; Function Attrs: mustprogress nounwind uwtable
define void @proj_unit_list_destroy(ptr noundef %0) local_unnamed_addr #0 {
  %.not = icmp eq ptr %0, null
  br i1 %.not, label %24, label %.preheader

.preheader:                                       ; preds = %1
  %2 = load ptr, ptr %0, align 8
  %.not1920 = icmp eq ptr %2, null
  br i1 %.not1920, label %._crit_edge, label %.lr.ph

.lr.ph:                                           ; preds = %.preheader, %21
  %indvars.iv = phi i64 [ %indvars.iv.next, %21 ], [ 0, %.preheader ]
  %3 = phi ptr [ %23, %21 ], [ %2, %.preheader ]
  %4 = getelementptr inbounds ptr, ptr %0, i64 %indvars.iv
  %5 = load ptr, ptr %3, align 8
  tail call void @free(ptr noundef %5) #27
  %6 = load ptr, ptr %4, align 8
  %7 = getelementptr inbounds i8, ptr %6, i64 8
  %8 = load ptr, ptr %7, align 8
  tail call void @free(ptr noundef %8) #27
  %9 = load ptr, ptr %4, align 8
  %10 = getelementptr inbounds i8, ptr %9, i64 16
  %11 = load ptr, ptr %10, align 8
  tail call void @free(ptr noundef %11) #27
  %12 = load ptr, ptr %4, align 8
  %13 = getelementptr inbounds i8, ptr %12, i64 24
  %14 = load ptr, ptr %13, align 8
  tail call void @free(ptr noundef %14) #27
  %15 = load ptr, ptr %4, align 8
  %16 = getelementptr inbounds i8, ptr %15, i64 40
  %17 = load ptr, ptr %16, align 8
  tail call void @free(ptr noundef %17) #27
  %18 = load ptr, ptr %4, align 8
  %19 = icmp eq ptr %18, null
  br i1 %19, label %21, label %20

20:                                               ; preds = %.lr.ph
  tail call void @_ZdlPv(ptr noundef nonnull %18) #28
  br label %21

21:                                               ; preds = %.lr.ph, %20
  %indvars.iv.next = add nuw nsw i64 %indvars.iv, 1
  %22 = getelementptr inbounds ptr, ptr %0, i64 %indvars.iv.next
  %23 = load ptr, ptr %22, align 8
  %.not19 = icmp eq ptr %23, null
  br i1 %.not19, label %._crit_edge, label %.lr.ph, !llvm.loop !57

._crit_edge:                                      ; preds = %21, %.preheader
  tail call void @_ZdaPv(ptr noundef nonnull %0) #28
  br label %24

24:                                               ; preds = %._crit_edge, %1
  ret void
}